target datalayout = "e-m:e-p270:32:32-p271:32:32-p272:64:64-i64:64-i128:128-f80:128-n8:16:32:64-S128"
target triple = "x86_64-pc-linux-gnu"

%struct.H5HF_free_section_t = type { %struct.H5FS_section_info_t, %union.anon }
%struct.H5FS_section_info_t = type { i64, i64, i32, i32 }
%union.anon = type { %struct.anon.1 }
%struct.anon.1 = type { %union.anon.2, i32, i32, i32, ptr, i32, i64, i32, i32, i32, ptr, i32, ptr }
%union.anon.2 = type { ptr }
%struct.anon = type { ptr, i32 }

@H5HF_init_g = external global i8, align 1
@H5_libterm_g = external global i8, align 1
@.str = private unnamed_addr constant [105 x i8] c"generated/home/dtcxzyw/WorkSpace/Projects/compilers/llvm-opt-benchmark/bench/hdf5/hdf5/src/H5HFsection.c\00", align 1
@H5E_HEAP_g = external global i64, align 8
@__func__.H5HF__sect_single_reduce = private unnamed_addr constant [25 x i8] c"H5HF__sect_single_reduce\00", align 1
@H5E_CANTRELEASE_g = external global i64, align 8
@.str.4 = private unnamed_addr constant [31 x i8] c"can't free single section node\00", align 1
@H5E_CANTINIT_g = external global i64, align 8
@.str.5 = private unnamed_addr constant [50 x i8] c"can't re-add single section to free space manager\00", align 1
@__func__.H5HF__sect_single_free = private unnamed_addr constant [23 x i8] c"H5HF__sect_single_free\00", align 1
@.str.6 = private unnamed_addr constant [24 x i8] c"can't free section node\00", align 1
@H5_H5HF_free_section_t_reg_free_list = internal global { i8, [3 x i8], i32, i32, [4 x i8], ptr, i64, ptr } { i8 0, [3 x i8] zeroinitializer, i32 0, i32 0, [4 x i8] zeroinitializer, ptr @.str.17, i64 112, ptr null }, align 8
@H5E_CANTDEC_g = external global i64, align 8
@.str.20 = private unnamed_addr constant [60 x i8] c"can't decrement reference count on section's indirect block\00", align 1
@__func__.H5HF__sect_node_free = private unnamed_addr constant [21 x i8] c"H5HF__sect_node_free\00", align 1

; Function Attrs: nounwind uwtable
define internal i32 @H5HF__sect_node_free(ptr noundef %0, ptr noundef %1) #0 {
  %3 = alloca ptr, align 8
  %4 = alloca ptr, align 8
  %5 = alloca i32, align 4
  %6 = alloca i8, align 1
  store ptr %0, ptr %3, align 8, !tbaa !23
  store ptr %1, ptr %4, align 8, !tbaa !66
  call void @llvm.lifetime.start.p0(i64 4, ptr %5) #7
  store i32 0, ptr %5, align 4, !tbaa !11
  call void @llvm.lifetime.start.p0(i64 1, ptr %6) #7
  store i8 0, ptr %6, align 1, !tbaa !13
  %7 = load i8, ptr @H5HF_init_g, align 1, !tbaa !13, !range !15, !noundef !16
  %8 = trunc i8 %7 to i1
  br i1 %8, label %13, label %9

9:                                                ; preds = %2
  %10 = load i8, ptr @H5_libterm_g, align 1, !tbaa !13, !range !15, !noundef !16
  %11 = trunc i8 %10 to i1
  %12 = xor i1 %11, true
  br label %13

13:                                               ; preds = %9, %2
  %14 = phi i1 [ true, %2 ], [ %12, %9 ]
  %15 = xor i1 %14, true
  %16 = xor i1 %15, true
  %17 = zext i1 %16 to i32
  %18 = sext i32 %17 to i64
  %19 = call i64 @llvm.expect.i64(i64 %18, i64 1)
  %20 = icmp ne i64 %19, 0
  br i1 %20, label %21, label %52

21:                                               ; preds = %13
  %22 = load ptr, ptr %4, align 8, !tbaa !66
  %23 = icmp ne ptr %22, null
  br i1 %23, label %24, label %48

24:                                               ; preds = %21
  %25 = load ptr, ptr %4, align 8, !tbaa !66
  %26 = call i32 @H5HF__iblock_decr(ptr noundef %25)
  %27 = icmp slt i32 %26, 0
  br i1 %27, label %28, label %47

28:                                               ; preds = %24
  br label %29

29:                                               ; preds = %28
  br label %30

30:                                               ; preds = %29
  br label %31

31:                                               ; preds = %30
  %32 = load i64, ptr @H5E_HEAP_g, align 8, !tbaa !25
  %33 = load i64, ptr @H5E_CANTDEC_g, align 8, !tbaa !25
  %34 = call i32 (ptr, ptr, i32, i64, i64, ptr, ...) @H5E_printf_stack(ptr noundef @.str, ptr noundef @__func__.H5HF__sect_node_free, i32 noundef 413, i64 noundef %32, i64 noundef %33, ptr noundef @.str.20)
  br label %35

35:                                               ; preds = %31
  br label %36

36:                                               ; preds = %35
  store i8 1, ptr %6, align 1, !tbaa !13
  %37 = load i8, ptr %6, align 1, !tbaa !13, !range !15, !noundef !16
  %38 = trunc i8 %37 to i1
  %39 = zext i1 %38 to i8
  store i8 %39, ptr %6, align 1, !tbaa !13
  br label %40

40:                                               ; preds = %36
  br label %41

41:                                               ; preds = %40
  br label %42

42:                                               ; preds = %41
  store i32 -1, ptr %5, align 4, !tbaa !11
  br label %51

43:                                               ; No predecessors!
  br label %44

44:                                               ; preds = %43
  br label %45

45:                                               ; preds = %44
  br label %46

46:                                               ; preds = %45
  br label %47

47:                                               ; preds = %46, %24
  br label %48

48:                                               ; preds = %47, %21
  %49 = load ptr, ptr %3, align 8, !tbaa !23
  %50 = call ptr @H5FL_reg_free(ptr noundef @H5_H5HF_free_section_t_reg_free_list, ptr noundef %49)
  store ptr %50, ptr %3, align 8, !tbaa !23
  br label %51

51:                                               ; preds = %48, %42
  br label %52

52:                                               ; preds = %51, %13
  %53 = load i32, ptr %5, align 4, !tbaa !11
  call void @llvm.lifetime.end.p0(i64 1, ptr %6) #7
  call void @llvm.lifetime.end.p0(i64 4, ptr %5) #7
  ret i32 %53
}

; Function Attrs: nounwind uwtable
define i32 @H5HF__sect_single_free(ptr noundef %0) #0 {
  %2 = alloca ptr, align 8
  %3 = alloca ptr, align 8
  %4 = alloca ptr, align 8
  %5 = alloca i32, align 4
  %6 = alloca i8, align 1
  store ptr %0, ptr %2, align 8, !tbaa !34
  call void @llvm.lifetime.start.p0(i64 8, ptr %3) #7
  %7 = load ptr, ptr %2, align 8, !tbaa !34
  store ptr %7, ptr %3, align 8, !tbaa !23
  call void @llvm.lifetime.start.p0(i64 8, ptr %4) #7
  store ptr null, ptr %4, align 8, !tbaa !66
  call void @llvm.lifetime.start.p0(i64 4, ptr %5) #7
  store i32 0, ptr %5, align 4, !tbaa !11
  call void @llvm.lifetime.start.p0(i64 1, ptr %6) #7
  store i8 0, ptr %6, align 1, !tbaa !13
  %8 = load i8, ptr @H5HF_init_g, align 1, !tbaa !13, !range !15, !noundef !16
  %9 = trunc i8 %8 to i1
  br i1 %9, label %14, label %10

10:                                               ; preds = %1
  %11 = load i8, ptr @H5_libterm_g, align 1, !tbaa !13, !range !15, !noundef !16
  %12 = trunc i8 %11 to i1
  %13 = xor i1 %12, true
  br label %14

14:                                               ; preds = %10, %1
  %15 = phi i1 [ true, %1 ], [ %13, %10 ]
  %16 = xor i1 %15, true
  %17 = xor i1 %16, true
  %18 = zext i1 %17 to i32
  %19 = sext i32 %18 to i64
  %20 = call i64 @llvm.expect.i64(i64 %19, i64 1)
  %21 = icmp ne i64 %20, 0
  br i1 %21, label %22, label %66

22:                                               ; preds = %14
  %23 = load ptr, ptr %3, align 8, !tbaa !23
  %24 = getelementptr inbounds nuw %struct.H5HF_free_section_t, ptr %23, i32 0, i32 0
  %25 = getelementptr inbounds nuw %struct.H5FS_section_info_t, ptr %24, i32 0, i32 3
  %26 = load i32, ptr %25, align 4, !tbaa !38
  %27 = icmp eq i32 %26, 0
  br i1 %27, label %28, label %40

28:                                               ; preds = %22
  %29 = load ptr, ptr %3, align 8, !tbaa !23
  %30 = getelementptr inbounds nuw %struct.H5HF_free_section_t, ptr %29, i32 0, i32 1
  %31 = getelementptr inbounds nuw %struct.anon, ptr %30, i32 0, i32 0
  %32 = load ptr, ptr %31, align 8, !tbaa !63
  %33 = icmp ne ptr %32, null
  br i1 %33, label %34, label %39

34:                                               ; preds = %28
  %35 = load ptr, ptr %3, align 8, !tbaa !23
  %36 = getelementptr inbounds nuw %struct.H5HF_free_section_t, ptr %35, i32 0, i32 1
  %37 = getelementptr inbounds nuw %struct.anon, ptr %36, i32 0, i32 0
  %38 = load ptr, ptr %37, align 8, !tbaa !63
  store ptr %38, ptr %4, align 8, !tbaa !66
  br label %39

39:                                               ; preds = %34, %28
  br label %40

40:                                               ; preds = %39, %22
  %41 = load ptr, ptr %3, align 8, !tbaa !23
  %42 = load ptr, ptr %4, align 8, !tbaa !66
  %43 = call i32 @H5HF__sect_node_free(ptr noundef %41, ptr noundef %42)
  %44 = icmp slt i32 %43, 0
  br i1 %44, label %45, label %64

45:                                               ; preds = %40
  br label %46

46:                                               ; preds = %45
  br label %47

47:                                               ; preds = %46
  br label %48

48:                                               ; preds = %47
  %49 = load i64, ptr @H5E_HEAP_g, align 8, !tbaa !25
  %50 = load i64, ptr @H5E_CANTRELEASE_g, align 8, !tbaa !25
  %51 = call i32 (ptr, ptr, i32, i64, i64, ptr, ...) @H5E_printf_stack(ptr noundef @.str, ptr noundef @__func__.H5HF__sect_single_free, i32 noundef 1057, i64 noundef %49, i64 noundef %50, ptr noundef @.str.6)
  br label %52

52:                                               ; preds = %48
  br label %53

53:                                               ; preds = %52
  store i8 1, ptr %6, align 1, !tbaa !13
  %54 = load i8, ptr %6, align 1, !tbaa !13, !range !15, !noundef !16
  %55 = trunc i8 %54 to i1
  %56 = zext i1 %55 to i8
  store i8 %56, ptr %6, align 1, !tbaa !13
  br label %57

57:                                               ; preds = %53
  br label %58

58:                                               ; preds = %57
  br label %59

59:                                               ; preds = %58
  store i32 -1, ptr %5, align 4, !tbaa !11
  br label %65

60:                                               ; No predecessors!
  br label %61

61:                                               ; preds = %60
  br label %62

62:                                               ; preds = %61
  br label %63

63:                                               ; preds = %62
  br label %64

64:                                               ; preds = %63, %40
  br label %65

65:                                               ; preds = %64, %59
  br label %66

66:                                               ; preds = %65, %14
  %67 = load i32, ptr %5, align 4, !tbaa !11
  call void @llvm.lifetime.end.p0(i64 1, ptr %6) #7
  call void @llvm.lifetime.end.p0(i64 4, ptr %5) #7
  call void @llvm.lifetime.end.p0(i64 8, ptr %4) #7
  call void @llvm.lifetime.end.p0(i64 8, ptr %3) #7
  ret i32 %67
}

; Function Attrs: nounwind uwtable
define i32 @H5HF__sect_single_reduce(ptr noundef %0, ptr noundef %1, i64 noundef %2) #0 {
  %4 = alloca ptr, align 8
  %5 = alloca ptr, align 8
  %6 = alloca i64, align 8
  %7 = alloca i32, align 4
  %8 = alloca i8, align 1
  store ptr %0, ptr %4, align 8, !tbaa !22
  store ptr %1, ptr %5, align 8, !tbaa !23
  store i64 %2, ptr %6, align 8, !tbaa !25
  call void @llvm.lifetime.start.p0(i64 4, ptr %7) #7
  store i32 0, ptr %7, align 4, !tbaa !11
  call void @llvm.lifetime.start.p0(i64 1, ptr %8) #7
  store i8 0, ptr %8, align 1, !tbaa !13
  %9 = load i8, ptr @H5HF_init_g, align 1, !tbaa !13, !range !15, !noundef !16
  %10 = trunc i8 %9 to i1
  br i1 %10, label %15, label %11

11:                                               ; preds = %3
  %12 = load i8, ptr @H5_libterm_g, align 1, !tbaa !13, !range !15, !noundef !16
  %13 = trunc i8 %12 to i1
  %14 = xor i1 %13, true
  br label %15

15:                                               ; preds = %11, %3
  %16 = phi i1 [ true, %3 ], [ %14, %11 ]
  %17 = xor i1 %16, true
  %18 = xor i1 %17, true
  %19 = zext i1 %18 to i32
  %20 = sext i32 %19 to i64
  %21 = call i64 @llvm.expect.i64(i64 %20, i64 1)
  %22 = icmp ne i64 %21, 0
  br i1 %22, label %23, label %93

23:                                               ; preds = %15
  %24 = load ptr, ptr %5, align 8, !tbaa !23
  %25 = getelementptr inbounds nuw %struct.H5HF_free_section_t, ptr %24, i32 0, i32 0
  %26 = getelementptr inbounds nuw %struct.H5FS_section_info_t, ptr %25, i32 0, i32 1
  %27 = load i64, ptr %26, align 8, !tbaa !37
  %28 = load i64, ptr %6, align 8, !tbaa !25
  %29 = icmp eq i64 %27, %28
  br i1 %29, label %30, label %54

30:                                               ; preds = %23
  %31 = load ptr, ptr %5, align 8, !tbaa !23
  %32 = call i32 @H5HF__sect_single_free(ptr noundef %31)
  %33 = icmp slt i32 %32, 0
  br i1 %33, label %34, label %53

34:                                               ; preds = %30
  br label %35

35:                                               ; preds = %34
  br label %36

36:                                               ; preds = %35
  br label %37

37:                                               ; preds = %36
  %38 = load i64, ptr @H5E_HEAP_g, align 8, !tbaa !25
  %39 = load i64, ptr @H5E_CANTRELEASE_g, align 8, !tbaa !25
  %40 = call i32 (ptr, ptr, i32, i64, i64, ptr, ...) @H5E_printf_stack(ptr noundef @.str, ptr noundef @__func__.H5HF__sect_single_reduce, i32 noundef 643, i64 noundef %38, i64 noundef %39, ptr noundef @.str.4)
  br label %41

41:                                               ; preds = %37
  br label %42

42:                                               ; preds = %41
  store i8 1, ptr %8, align 1, !tbaa !13
  %43 = load i8, ptr %8, align 1, !tbaa !13, !range !15, !noundef !16
  %44 = trunc i8 %43 to i1
  %45 = zext i1 %44 to i8
  store i8 %45, ptr %8, align 1, !tbaa !13
  br label %46

46:                                               ; preds = %42
  br label %47

47:                                               ; preds = %46
  br label %48

48:                                               ; preds = %47
  store i32 -1, ptr %7, align 4, !tbaa !11
  br label %92

49:                                               ; No predecessors!
  br label %50

50:                                               ; preds = %49
  br label %51

51:                                               ; preds = %50
  br label %52

52:                                               ; preds = %51
  br label %53

53:                                               ; preds = %52, %30
  br label %91

54:                                               ; preds = %23
  %55 = load i64, ptr %6, align 8, !tbaa !25
  %56 = load ptr, ptr %5, align 8, !tbaa !23
  %57 = getelementptr inbounds nuw %struct.H5HF_free_section_t, ptr %56, i32 0, i32 0
  %58 = getelementptr inbounds nuw %struct.H5FS_section_info_t, ptr %57, i32 0, i32 0
  %59 = load i64, ptr %58, align 8, !tbaa !36
  %60 = add i64 %59, %55
  store i64 %60, ptr %58, align 8, !tbaa !36
  %61 = load i64, ptr %6, align 8, !tbaa !25
  %62 = load ptr, ptr %5, align 8, !tbaa !23
  %63 = getelementptr inbounds nuw %struct.H5HF_free_section_t, ptr %62, i32 0, i32 0
  %64 = getelementptr inbounds nuw %struct.H5FS_section_info_t, ptr %63, i32 0, i32 1
  %65 = load i64, ptr %64, align 8, !tbaa !37
  %66 = sub i64 %65, %61
  store i64 %66, ptr %64, align 8, !tbaa !37
  %67 = load ptr, ptr %4, align 8, !tbaa !22
  %68 = load ptr, ptr %5, align 8, !tbaa !23
  %69 = call i32 @H5HF__space_add(ptr noundef %67, ptr noundef %68, i32 noundef 0)
  %70 = icmp slt i32 %69, 0
  br i1 %70, label %71, label %90

71:                                               ; preds = %54
  br label %72

72:                                               ; preds = %71
  br label %73

73:                                               ; preds = %72
  br label %74

74:                                               ; preds = %73
  %75 = load i64, ptr @H5E_HEAP_g, align 8, !tbaa !25
  %76 = load i64, ptr @H5E_CANTINIT_g, align 8, !tbaa !25
  %77 = call i32 (ptr, ptr, i32, i64, i64, ptr, ...) @H5E_printf_stack(ptr noundef @.str, ptr noundef @__func__.H5HF__sect_single_reduce, i32 noundef 652, i64 noundef %75, i64 noundef %76, ptr noundef @.str.5)
  br label %78

78:                                               ; preds = %74
  br label %79

79:                                               ; preds = %78
  store i8 1, ptr %8, align 1, !tbaa !13
  %80 = load i8, ptr %8, align 1, !tbaa !13, !range !15, !noundef !16
  %81 = trunc i8 %80 to i1
  %82 = zext i1 %81 to i8
  store i8 %82, ptr %8, align 1, !tbaa !13
  br label %83

83:                                               ; preds = %79
  br label %84

84:                                               ; preds = %83
  br label %85

85:                                               ; preds = %84
  store i32 -1, ptr %7, align 4, !tbaa !11
  br label %92

86:                                               ; No predecessors!
  br label %87

87:                                               ; preds = %86
  br label %88

88:                                               ; preds = %87
  br label %89

89:                                               ; preds = %88
  br label %90

90:                                               ; preds = %89, %54
  br label %91

91:                                               ; preds = %90, %53
  br label %92

92:                                               ; preds = %91, %85, %48
  br label %93

93:                                               ; preds = %92, %15
  %94 = load i32, ptr %7, align 4, !tbaa !11
  call void @llvm.lifetime.end.p0(i64 1, ptr %8) #7
  call void @llvm.lifetime.end.p0(i64 4, ptr %7) #7
  ret i32 %94
}