; Function Attrs: nounwind uwtable
define range(i32 -1, 1) i32 @H5HF__sect_single_reduce(ptr noundef %0, ptr noundef %1, i64 noundef %2) local_unnamed_addr #0 {
  %4 = load i8, ptr @H5HF_init_g, align 1, !tbaa !3, !range !7, !noundef !8
  %5 = trunc nuw i8 %4 to i1
  %6 = load i8, ptr @H5_libterm_g, align 1, !range !7
  %7 = trunc nuw i8 %6 to i1
  %8 = xor i1 %7, true
  %9 = select i1 %5, i1 true, i1 %8
  br i1 %9, label %10, label %45, !prof !9

10:                                               ; preds = %3
  %11 = getelementptr inbounds nuw i8, ptr %1, i64 8
  %12 = load i64, ptr %11, align 8, !tbaa !24
  %13 = icmp eq i64 %12, %2
  br i1 %13, label %14, label %35

14:                                               ; preds = %10
  %15 = getelementptr inbounds nuw i8, ptr %1, i64 20
  %16 = load i32, ptr %15, align 4, !tbaa !25
  %17 = icmp eq i32 %16, 0
  br i1 %17, label %18, label %H5HF__sect_single_free.exit

18:                                               ; preds = %14
  %19 = getelementptr inbounds nuw i8, ptr %1, i64 24
  %20 = load ptr, ptr %19, align 8, !tbaa !26
  %.not.i.i = icmp eq ptr %20, null
  br i1 %.not.i.i, label %H5HF__sect_single_free.exit, label %21

21:                                               ; preds = %18
  %22 = tail call i32 @H5HF__iblock_decr(ptr noundef nonnull %20) #13
  %23 = icmp slt i32 %22, 0
  br i1 %23, label %25, label %H5HF__sect_single_free.exit

H5HF__sect_single_free.exit:                      ; preds = %14, %18, %21
  %24 = tail call ptr @H5FL_reg_free(ptr noundef nonnull @H5_H5HF_free_section_t_reg_free_list, ptr noundef nonnull %1) #13
  br label %45

25:                                               ; preds = %21
  %26 = load i64, ptr @H5E_HEAP_g, align 8, !tbaa !18
  %27 = load i64, ptr @H5E_CANTDEC_g, align 8, !tbaa !18
  %28 = tail call i32 (ptr, ptr, i32, i64, i64, ptr, ...) @H5E_printf_stack(ptr noundef nonnull @.str, ptr noundef nonnull @__func__.H5HF__sect_node_free, i32 noundef 413, i64 noundef %26, i64 noundef %27, ptr noundef nonnull @.str.20) #13
  %29 = load i64, ptr @H5E_HEAP_g, align 8, !tbaa !18
  %30 = load i64, ptr @H5E_CANTRELEASE_g, align 8, !tbaa !18
  %31 = tail call i32 (ptr, ptr, i32, i64, i64, ptr, ...) @H5E_printf_stack(ptr noundef nonnull @.str, ptr noundef nonnull @__func__.H5HF__sect_single_free, i32 noundef 1057, i64 noundef %29, i64 noundef %30, ptr noundef nonnull @.str.6) #13
  %32 = load i64, ptr @H5E_HEAP_g, align 8, !tbaa !18
  %33 = load i64, ptr @H5E_CANTRELEASE_g, align 8, !tbaa !18
  %34 = tail call i32 (ptr, ptr, i32, i64, i64, ptr, ...) @H5E_printf_stack(ptr noundef nonnull @.str, ptr noundef nonnull @__func__.H5HF__sect_single_reduce, i32 noundef 643, i64 noundef %32, i64 noundef %33, ptr noundef nonnull @.str.4) #13
  br label %45

35:                                               ; preds = %10
  %36 = load i64, ptr %1, align 8, !tbaa !23
  %37 = add i64 %36, %2
  store i64 %37, ptr %1, align 8, !tbaa !23
  %38 = sub i64 %12, %2
  store i64 %38, ptr %11, align 8, !tbaa !24
  %39 = tail call i32 @H5HF__space_add(ptr noundef %0, ptr noundef nonnull %1, i32 noundef 0) #13
  %40 = icmp slt i32 %39, 0
  br i1 %40, label %41, label %45

41:                                               ; preds = %35
  %42 = load i64, ptr @H5E_HEAP_g, align 8, !tbaa !18
  %43 = load i64, ptr @H5E_CANTINIT_g, align 8, !tbaa !18
  %44 = tail call i32 (ptr, ptr, i32, i64, i64, ptr, ...) @H5E_printf_stack(ptr noundef nonnull @.str, ptr noundef nonnull @__func__.H5HF__sect_single_reduce, i32 noundef 652, i64 noundef %42, i64 noundef %43, ptr noundef nonnull @.str.5) #13
  br label %45

45:                                               ; preds = %H5HF__sect_single_free.exit, %25, %41, %35, %3
  %.0 = phi i32 [ -1, %25 ], [ 0, %H5HF__sect_single_free.exit ], [ -1, %41 ], [ 0, %35 ], [ 0, %3 ]
  ret i32 %.0
}